target datalayout = "e-m:e-p270:32:32-p271:32:32-p272:64:64-i64:64-i128:128-f80:128-n8:16:32:64-S128"
target triple = "x86_64-pc-linux-gnu"

%struct.bignum_st = type { ptr, i32, i32, i32, i32 }

; Function Attrs: nounwind uwtable
define i32 @BN_lshift1(ptr noundef %0, ptr noundef %1) #0 {
  %3 = alloca i32, align 4
  %4 = alloca ptr, align 8
  %5 = alloca ptr, align 8
  %6 = alloca ptr, align 8
  %7 = alloca ptr, align 8
  %8 = alloca i64, align 8
  %9 = alloca i64, align 8
  %10 = alloca i32, align 4
  %11 = alloca i32, align 4
  store ptr %0, ptr %4, align 8, !tbaa !3
  store ptr %1, ptr %5, align 8, !tbaa !3
  call void @llvm.lifetime.start.p0(i64 8, ptr %6) #4
  call void @llvm.lifetime.start.p0(i64 8, ptr %7) #4
  call void @llvm.lifetime.start.p0(i64 8, ptr %8) #4
  call void @llvm.lifetime.start.p0(i64 8, ptr %9) #4
  call void @llvm.lifetime.start.p0(i64 4, ptr %10) #4
  %12 = load ptr, ptr %4, align 8, !tbaa !3
  %13 = load ptr, ptr %5, align 8, !tbaa !3
  %14 = icmp ne ptr %12, %13
  br i1 %14, label %15, label %35

15:                                               ; preds = %2
  %16 = load ptr, ptr %5, align 8, !tbaa !3
  %17 = getelementptr inbounds nuw %struct.bignum_st, ptr %16, i32 0, i32 3
  %18 = load i32, ptr %17, align 8, !tbaa !8
  %19 = load ptr, ptr %4, align 8, !tbaa !3
  %20 = getelementptr inbounds nuw %struct.bignum_st, ptr %19, i32 0, i32 3
  store i32 %18, ptr %20, align 8, !tbaa !8
  %21 = load ptr, ptr %4, align 8, !tbaa !3
  %22 = load ptr, ptr %5, align 8, !tbaa !3
  %23 = getelementptr inbounds nuw %struct.bignum_st, ptr %22, i32 0, i32 1
  %24 = load i32, ptr %23, align 8, !tbaa !12
  %25 = add nsw i32 %24, 1
  %26 = call ptr @bn_wexpand(ptr noundef %21, i32 noundef %25)
  %27 = icmp eq ptr %26, null
  br i1 %27, label %28, label %29

28:                                               ; preds = %15
  store i32 0, ptr %3, align 4
  store i32 1, ptr %11, align 4
  br label %84

29:                                               ; preds = %15
  %30 = load ptr, ptr %5, align 8, !tbaa !3
  %31 = getelementptr inbounds nuw %struct.bignum_st, ptr %30, i32 0, i32 1
  %32 = load i32, ptr %31, align 8, !tbaa !12
  %33 = load ptr, ptr %4, align 8, !tbaa !3
  %34 = getelementptr inbounds nuw %struct.bignum_st, ptr %33, i32 0, i32 1
  store i32 %32, ptr %34, align 8, !tbaa !12
  br label %45

35:                                               ; preds = %2
  %36 = load ptr, ptr %4, align 8, !tbaa !3
  %37 = load ptr, ptr %5, align 8, !tbaa !3
  %38 = getelementptr inbounds nuw %struct.bignum_st, ptr %37, i32 0, i32 1
  %39 = load i32, ptr %38, align 8, !tbaa !12
  %40 = add nsw i32 %39, 1
  %41 = call ptr @bn_wexpand(ptr noundef %36, i32 noundef %40)
  %42 = icmp eq ptr %41, null
  br i1 %42, label %43, label %44

43:                                               ; preds = %35
  store i32 0, ptr %3, align 4
  store i32 1, ptr %11, align 4
  br label %84

44:                                               ; preds = %35
  br label %45

45:                                               ; preds = %44, %29
  %46 = load ptr, ptr %5, align 8, !tbaa !3
  %47 = getelementptr inbounds nuw %struct.bignum_st, ptr %46, i32 0, i32 0
  %48 = load ptr, ptr %47, align 8, !tbaa !13
  store ptr %48, ptr %6, align 8, !tbaa !14
  %49 = load ptr, ptr %4, align 8, !tbaa !3
  %50 = getelementptr inbounds nuw %struct.bignum_st, ptr %49, i32 0, i32 0
  %51 = load ptr, ptr %50, align 8, !tbaa !13
  store ptr %51, ptr %7, align 8, !tbaa !14
  store i64 0, ptr %9, align 8, !tbaa !15
  store i32 0, ptr %10, align 4, !tbaa !17
  br label %52

52:                                               ; preds = %71, %45
  %53 = load i32, ptr %10, align 4, !tbaa !17
  %54 = load ptr, ptr %5, align 8, !tbaa !3
  %55 = getelementptr inbounds nuw %struct.bignum_st, ptr %54, i32 0, i32 1
  %56 = load i32, ptr %55, align 8, !tbaa !12
  %57 = icmp slt i32 %53, %56
  br i1 %57, label %58, label %74

58:                                               ; preds = %52
  %59 = load ptr, ptr %6, align 8, !tbaa !14
  %60 = getelementptr inbounds nuw i64, ptr %59, i32 1
  store ptr %60, ptr %6, align 8, !tbaa !14
  %61 = load i64, ptr %59, align 8, !tbaa !15
  store i64 %61, ptr %8, align 8, !tbaa !15
  %62 = load i64, ptr %8, align 8, !tbaa !15
  %63 = shl i64 %62, 1
  %64 = load i64, ptr %9, align 8, !tbaa !15
  %65 = or i64 %63, %64
  %66 = and i64 %65, -1
  %67 = load ptr, ptr %7, align 8, !tbaa !14
  %68 = getelementptr inbounds nuw i64, ptr %67, i32 1
  store ptr %68, ptr %7, align 8, !tbaa !14
  store i64 %66, ptr %67, align 8, !tbaa !15
  %69 = load i64, ptr %8, align 8, !tbaa !15
  %70 = lshr i64 %69, 63
  store i64 %70, ptr %9, align 8, !tbaa !15
  br label %71

71:                                               ; preds = %58
  %72 = load i32, ptr %10, align 4, !tbaa !17
  %73 = add nsw i32 %72, 1
  store i32 %73, ptr %10, align 4, !tbaa !17
  br label %52, !llvm.loop !18

74:                                               ; preds = %52
  %75 = load i64, ptr %9, align 8, !tbaa !15
  %76 = load ptr, ptr %7, align 8, !tbaa !14
  store i64 %75, ptr %76, align 8, !tbaa !15
  %77 = load i64, ptr %9, align 8, !tbaa !15
  %78 = load ptr, ptr %4, align 8, !tbaa !3
  %79 = getelementptr inbounds nuw %struct.bignum_st, ptr %78, i32 0, i32 1
  %80 = load i32, ptr %79, align 8, !tbaa !12
  %81 = sext i32 %80 to i64
  %82 = add i64 %81, %77
  %83 = trunc i64 %82 to i32
  store i32 %83, ptr %79, align 8, !tbaa !12
  store i32 1, ptr %3, align 4
  store i32 1, ptr %11, align 4
  br label %84

84:                                               ; preds = %74, %43, %28
  call void @llvm.lifetime.end.p0(i64 4, ptr %10) #4
  call void @llvm.lifetime.end.p0(i64 8, ptr %9) #4
  call void @llvm.lifetime.end.p0(i64 8, ptr %8) #4
  call void @llvm.lifetime.end.p0(i64 8, ptr %7) #4
  call void @llvm.lifetime.end.p0(i64 8, ptr %6) #4
  %85 = load i32, ptr %3, align 4
  ret i32 %85
}