; Function Attrs: nounwind uwtable
define range(i32 0, 2) i32 @BN_lshift1(ptr noundef %0, ptr noundef readonly captures(address) %1) local_unnamed_addr #0 {
  %.not = icmp eq ptr %0, %1
  br i1 %.not, label %15, label %3

3:                                                ; preds = %2
  %4 = getelementptr inbounds nuw i8, ptr %1, i64 16
  %5 = load i32, ptr %4, align 8, !tbaa !3
  %6 = getelementptr inbounds nuw i8, ptr %0, i64 16
  store i32 %5, ptr %6, align 8, !tbaa !3
  %7 = getelementptr inbounds nuw i8, ptr %1, i64 8
  %8 = load i32, ptr %7, align 8, !tbaa !10
  %9 = add nsw i32 %8, 1
  %10 = tail call ptr @bn_wexpand(ptr noundef %0, i32 noundef %9) #4
  %11 = icmp eq ptr %10, null
  br i1 %11, label %37, label %12

12:                                               ; preds = %3
  %13 = load i32, ptr %7, align 8, !tbaa !10
  %14 = getelementptr inbounds nuw i8, ptr %0, i64 8
  store i32 %13, ptr %14, align 8, !tbaa !10
  br label %21

15:                                               ; preds = %2
  %16 = getelementptr inbounds nuw i8, ptr %1, i64 8
  %17 = load i32, ptr %16, align 8, !tbaa !10
  %18 = add nsw i32 %17, 1
  %19 = tail call ptr @bn_wexpand(ptr noundef %0, i32 noundef %18) #4
  %20 = icmp eq ptr %19, null
  br i1 %20, label %37, label %._crit_edge37

._crit_edge37:                                    ; preds = %15
  %.pre = load i32, ptr %16, align 8, !tbaa !10
  br label %21

21:                                               ; preds = %._crit_edge37, %12
  %22 = phi i32 [ %.pre, %._crit_edge37 ], [ %13, %12 ]
  %23 = load ptr, ptr %0, align 8, !tbaa !11
  %24 = icmp sgt i32 %22, 0
  br i1 %24, label %.lr.ph.preheader, label %._crit_edge

.lr.ph.preheader:                                 ; preds = %21
  %25 = load ptr, ptr %1, align 8, !tbaa !11
  br label %.lr.ph

.lr.ph:                                           ; preds = %.lr.ph.preheader, %.lr.ph
  %.034 = phi i32 [ %32, %.lr.ph ], [ 0, %.lr.ph.preheader ]
  %.02433 = phi i64 [ %31, %.lr.ph ], [ 0, %.lr.ph.preheader ]
  %.02632 = phi ptr [ %30, %.lr.ph ], [ %23, %.lr.ph.preheader ]
  %.02731 = phi ptr [ %26, %.lr.ph ], [ %25, %.lr.ph.preheader ]
  %26 = getelementptr inbounds nuw i8, ptr %.02731, i64 8
  %27 = load i64, ptr %.02731, align 8, !tbaa !12
  %28 = shl i64 %27, 1
  %29 = or disjoint i64 %28, %.02433
  %30 = getelementptr inbounds nuw i8, ptr %.02632, i64 8
  store i64 %29, ptr %.02632, align 8, !tbaa !12
  %31 = lshr i64 %27, 63
  %32 = add nuw nsw i32 %.034, 1
  %exitcond.not = icmp eq i32 %32, %22
  br i1 %exitcond.not, label %._crit_edge, label %.lr.ph, !llvm.loop !14

._crit_edge:                                      ; preds = %.lr.ph, %21
  %.026.lcssa = phi ptr [ %23, %21 ], [ %30, %.lr.ph ]
  %.024.lcssa = phi i64 [ 0, %21 ], [ %31, %.lr.ph ]
  store i64 %.024.lcssa, ptr %.026.lcssa, align 8, !tbaa !12
  %33 = getelementptr inbounds nuw i8, ptr %0, i64 8
  %34 = load i32, ptr %33, align 8, !tbaa !10
  %35 = trunc nuw nsw i64 %.024.lcssa to i32
  %36 = add i32 %34, %35
  store i32 %36, ptr %33, align 8, !tbaa !10
  br label %37

37:                                               ; preds = %15, %3, %._crit_edge
  %.025 = phi i32 [ 1, %._crit_edge ], [ 0, %3 ], [ 0, %15 ]
  ret i32 %.025
}